; Function Attrs: mustprogress nounwind uwtable
define hidden void @_ZNK21MemDetailDiffReporter15old_malloc_siteEPK10MallocSite(ptr noundef nonnull align 8 dereferenceable(2464) %0, ptr noundef %1) local_unnamed_addr #0 align 2 {
  %3 = getelementptr inbounds i8, ptr %1, i64 48
  %4 = load volatile i64, ptr %3, align 8
  %5 = getelementptr inbounds i8, ptr %1, i64 40
  %6 = load volatile i64, ptr %5, align 8
  %7 = getelementptr inbounds i8, ptr %1, i64 32
  %8 = load i8, ptr %7, align 8
  tail call void @_ZNK21MemDetailDiffReporter16diff_malloc_siteEPK15NativeCallStackmmmm8MEMFLAGS(ptr noundef nonnull align 8 dereferenceable(2464) %0, ptr noundef %1, i64 noundef 0, i64 noundef 0, i64 noundef %4, i64 noundef %6, i8 noundef zeroext %8)
  ret void
}